target datalayout = "e-m:e-p270:32:32-p271:32:32-p272:64:64-i64:64-i128:128-f80:128-n8:16:32:64-S128"
target triple = "x86_64-pc-linux-gnu"

%struct.SUNContext_ = type { ptr, i32, ptr, i32, i32, ptr, i32 }

@.str.26 = private unnamed_addr constant [100 x i8] c"SUNAbortErrHandler: Calling abort now, use a different error handler to avoid program termination.\0A\00", align 1

; Function Attrs: nounwind uwtable
define void @SUNAbortErrHandlerFn(i32 noundef %0, ptr noundef %1, ptr noundef %2, ptr noundef %3, i32 noundef %4, ptr noundef %5, ptr noundef %6) #0 {
  %8 = alloca i32, align 4
  %9 = alloca ptr, align 8
  %10 = alloca ptr, align 8
  %11 = alloca ptr, align 8
  %12 = alloca i32, align 4
  %13 = alloca ptr, align 8
  %14 = alloca ptr, align 8
  %15 = alloca ptr, align 8
  store i32 %0, ptr %8, align 4, !tbaa !15
  store ptr %1, ptr %9, align 8, !tbaa !17
  store ptr %2, ptr %10, align 8, !tbaa !17
  store ptr %3, ptr %11, align 8, !tbaa !17
  store i32 %4, ptr %12, align 4, !tbaa !15
  store ptr %5, ptr %13, align 8, !tbaa !3
  store ptr %6, ptr %14, align 8, !tbaa !19
  call void @llvm.lifetime.start.p0(i64 8, ptr %15) #9
  %16 = load i32, ptr %8, align 4, !tbaa !15
  %17 = load ptr, ptr %10, align 8, !tbaa !17
  %18 = call ptr @sunCombineFileAndLine(i32 noundef %16, ptr noundef %17)
  store ptr %18, ptr %15, align 8, !tbaa !17
  %19 = load ptr, ptr %14, align 8, !tbaa !19
  %20 = getelementptr inbounds nuw %struct.SUNContext_, ptr %19, i32 0, i32 2
  %21 = load ptr, ptr %20, align 8, !tbaa !21
  %22 = load ptr, ptr %15, align 8, !tbaa !17
  %23 = load ptr, ptr %9, align 8, !tbaa !17
  %24 = call i32 (ptr, i32, ptr, ptr, ptr, ...) @SUNLogger_QueueMsg(ptr noundef %21, i32 noundef 1, ptr noundef %22, ptr noundef %23, ptr noundef @.str.26)
  %25 = load ptr, ptr %15, align 8, !tbaa !17
  call void @free(ptr noundef %25) #9
  call void @abort() #12
  unreachable
}