; Function Attrs: cold noreturn nounwind uwtable
define void @SUNAbortErrHandlerFn(i32 noundef %0, ptr noundef %1, ptr noundef %2, ptr noundef readnone captures(none) %3, i32 noundef %4, ptr noundef readnone captures(none) %5, ptr noundef readonly captures(none) %6) local_unnamed_addr #9 {
  %8 = tail call fastcc ptr @sunCombineFileAndLine(i32 noundef %0, ptr noundef %2)
  %9 = getelementptr inbounds nuw i8, ptr %6, i64 16
  %10 = load ptr, ptr %9, align 8, !tbaa !12
  %11 = tail call i32 (ptr, i32, ptr, ptr, ptr, ...) @SUNLogger_QueueMsg(ptr noundef %10, i32 noundef 1, ptr noundef %8, ptr noundef %1, ptr noundef nonnull @.str.26) #17
  tail call void @free(ptr noundef %8) #17
  tail call void @abort() #19
  unreachable
}